; Function Attrs: mustprogress uwtable
define noundef nonnull align 8 dereferenceable(32) ptr @_ZN6google8protobuf8internal10NameOfEnumB5cxx11EPKNS0_14EnumDescriptorEi(ptr noundef nonnull %descriptor, i32 noundef %value) local_unnamed_addr #4 {
entry:
  %call = tail call noundef ptr @_ZNK6google8protobuf14EnumDescriptor17FindValueByNumberEi(ptr noundef nonnull align 8 dereferenceable(88) %descriptor, i32 noundef %value)
  %cmp = icmp eq ptr %call, null
  br i1 %cmp, label %cond.true, label %cond.false

cond.true:                                        ; preds = %entry
  %0 = load atomic i8, ptr @_ZN6google8protobuf8internal28init_protobuf_defaults_stateE acquire, align 1
  %1 = and i8 %0, 1
  %tobool.i.i.not.i.i = icmp eq i8 %1, 0
  br i1 %tobool.i.i.not.i.i, label %if.then.i.i, label %cond.end

if.then.i.i:                                      ; preds = %cond.true
  tail call void @_ZN6google8protobuf8internal24InitProtobufDefaultsSlowEv()
  br label %cond.end

cond.false:                                       ; preds = %entry
  %all_names_.i = getelementptr inbounds i8, ptr %call, i64 8
  %2 = load ptr, ptr %all_names_.i, align 8
  br label %cond.end

cond.end:                                         ; preds = %if.then.i.i, %cond.true, %cond.false
  %cond-lvalue = phi ptr [ %2, %cond.false ], [ @_ZN6google8protobuf8internal26fixed_address_empty_stringB5cxx11E, %cond.true ], [ @_ZN6google8protobuf8internal26fixed_address_empty_stringB5cxx11E, %if.then.i.i ]
  ret ptr %cond-lvalue
}